target datalayout = "e-m:e-p270:32:32-p271:32:32-p272:64:64-i64:64-i128:128-f80:128-n8:16:32:64-S128"
target triple = "x86_64-unknown-linux-gnu"

%"class.llvh::Optional" = type { %"struct.llvh::optional_detail::OptionalStorage" }
%"struct.llvh::optional_detail::OptionalStorage" = type { %"struct.llvh::AlignedCharArrayUnion", i8, [7 x i8] }
%"struct.llvh::AlignedCharArrayUnion" = type { %"struct.llvh::AlignedCharArray" }
%"struct.llvh::AlignedCharArray" = type { [8 x i8] }

; Function Attrs: mustprogress nounwind uwtable
define linkonce_odr hidden noundef ptr @_ZNK4llvh8OptionalImE10getPointerEv(ptr noundef nonnull align 8 dereferenceable(16) %this) #0 comdat align 2 {
entry:
  %this.addr = alloca ptr, align 8
  store ptr %this, ptr %this.addr, align 8
  %this1 = load ptr, ptr %this.addr, align 8
  %Storage = getelementptr inbounds %"class.llvh::Optional", ptr %this1, i32 0, i32 0
  %storage = getelementptr inbounds %"struct.llvh::optional_detail::OptionalStorage", ptr %Storage, i32 0, i32 0
  %buffer = getelementptr inbounds %"struct.llvh::AlignedCharArray", ptr %storage, i32 0, i32 0
  %arraydecay = getelementptr inbounds [8 x i8], ptr %buffer, i64 0, i64 0
  ret ptr %arraydecay
}

; Function Attrs: mustprogress nounwind uwtable
define linkonce_odr hidden noundef i64 @_ZN4llvh6detail19LeadingZerosCounterImLm8EE5countEmNS_12ZeroBehaviorE(i64 noundef %Val, i32 noundef %ZB) #0 comdat align 2 {
entry:
  %retval = alloca i64, align 8
  %Val.addr = alloca i64, align 8
  %ZB.addr = alloca i32, align 4
  store i64 %Val, ptr %Val.addr, align 8
  store i32 %ZB, ptr %ZB.addr, align 4
  %0 = load i32, ptr %ZB.addr, align 4
  %cmp = icmp ne i32 %0, 0
  br i1 %cmp, label %land.lhs.true, label %if.end

land.lhs.true:                                    ; preds = %entry
  %1 = load i64, ptr %Val.addr, align 8
  %cmp1 = icmp eq i64 %1, 0
  br i1 %cmp1, label %if.then, label %if.end

if.then:                                          ; preds = %land.lhs.true
  store i64 64, ptr %retval, align 8
  br label %return

if.end:                                           ; preds = %land.lhs.true, %entry
  %2 = load i64, ptr %Val.addr, align 8
  %3 = call i64 @llvm.ctlz.i64(i64 %2, i1 true)
  %cast = trunc i64 %3 to i32
  %conv = sext i32 %cast to i64
  store i64 %conv, ptr %retval, align 8
  br label %return

return:                                           ; preds = %if.end, %if.then
  %4 = load i64, ptr %retval, align 8
  ret i64 %4
}

; Function Attrs: mustprogress nounwind uwtable
define linkonce_odr hidden noundef nonnull align 8 dereferenceable(8) ptr @_ZNKR4llvh8OptionalImE8getValueEv(ptr noundef nonnull align 8 dereferenceable(16) %this) #0 comdat align 2 {
entry:
  %this.addr = alloca ptr, align 8
  store ptr %this, ptr %this.addr, align 8
  %this1 = load ptr, ptr %this.addr, align 8
  %call = call noundef ptr @_ZNK4llvh8OptionalImE10getPointerEv(ptr noundef nonnull align 8 dereferenceable(16) %this1)
  ret ptr %call
}

; Function Attrs: mustprogress nounwind uwtable
define linkonce_odr hidden noundef zeroext i1 @_ZNK4llvh8OptionalImE8hasValueEv(ptr noundef nonnull align 8 dereferenceable(16) %this) #0 comdat align 2 {
entry:
  %this.addr = alloca ptr, align 8
  store ptr %this, ptr %this.addr, align 8
  %this1 = load ptr, ptr %this.addr, align 8
  %Storage = getelementptr inbounds %"class.llvh::Optional", ptr %this1, i32 0, i32 0
  %hasVal = getelementptr inbounds %"struct.llvh::optional_detail::OptionalStorage", ptr %Storage, i32 0, i32 1
  %0 = load i8, ptr %hasVal, align 8
  %tobool = trunc i8 %0 to i1
  ret i1 %tobool
}

; Function Attrs: mustprogress nounwind uwtable
define linkonce_odr hidden noundef signext i8 @_ZN4llvh8hexdigitEjb(i32 noundef %X, i1 noundef zeroext %LowerCase) #0 comdat {
entry:
  %X.addr = alloca i32, align 4
  %LowerCase.addr = alloca i8, align 1
  %HexChar = alloca i8, align 1
  store i32 %X, ptr %X.addr, align 4
  %frombool = zext i1 %LowerCase to i8
  store i8 %frombool, ptr %LowerCase.addr, align 1
  %0 = load i8, ptr %LowerCase.addr, align 1
  %tobool = trunc i8 %0 to i1
  %cond = select i1 %tobool, i8 97, i8 65
  store i8 %cond, ptr %HexChar, align 1
  %1 = load i32, ptr %X.addr, align 4
  %cmp = icmp ult i32 %1, 10
  br i1 %cmp, label %cond.true, label %cond.false

cond.true:                                        ; preds = %entry
  %2 = load i32, ptr %X.addr, align 4
  %add = add i32 48, %2
  br label %cond.end

cond.false:                                       ; preds = %entry
  %3 = load i8, ptr %HexChar, align 1
  %conv = sext i8 %3 to i32
  %4 = load i32, ptr %X.addr, align 4
  %add1 = add i32 %conv, %4
  %sub = sub i32 %add1, 10
  br label %cond.end

cond.end:                                         ; preds = %cond.false, %cond.true
  %cond2 = phi i32 [ %add, %cond.true ], [ %sub, %cond.false ]
  %conv3 = trunc i32 %cond2 to i8
  ret i8 %conv3
}

; Function Attrs: mustprogress nounwind uwtable
define linkonce_odr hidden noundef i64 @_ZN4llvh14array_lengthofIcLm128EEEmRAT0__T_(ptr noundef nonnull align 1 dereferenceable(128) %0) #0 comdat {
entry:
  %.addr = alloca ptr, align 8
  store ptr %0, ptr %.addr, align 8
  ret i64 128
}

; Function Attrs: mustprogress nounwind uwtable
define linkonce_odr noundef nonnull align 4 dereferenceable(4) ptr @_ZSt3maxIjERKT_S2_S2_(ptr noundef nonnull align 4 dereferenceable(4) %__a, ptr noundef nonnull align 4 dereferenceable(4) %__b) #0 comdat {
entry:
  %retval = alloca ptr, align 8
  %__a.addr = alloca ptr, align 8
  %__b.addr = alloca ptr, align 8
  store ptr %__a, ptr %__a.addr, align 8
  store ptr %__b, ptr %__b.addr, align 8
  %0 = load ptr, ptr %__a.addr, align 8
  %1 = load i32, ptr %0, align 4
  %2 = load ptr, ptr %__b.addr, align 8
  %3 = load i32, ptr %2, align 4
  %cmp = icmp ult i32 %1, %3
  br i1 %cmp, label %if.then, label %if.end

if.then:                                          ; preds = %entry
  %4 = load ptr, ptr %__b.addr, align 8
  store ptr %4, ptr %retval, align 8
  br label %return

if.end:                                           ; preds = %entry
  %5 = load ptr, ptr %__a.addr, align 8
  store ptr %5, ptr %retval, align 8
  br label %return

return:                                           ; preds = %if.end, %if.then
  %6 = load ptr, ptr %retval, align 8
  ret ptr %6
}

; Function Attrs: mustprogress nounwind uwtable
define linkonce_odr hidden noundef i64 @_ZN4llvh17countLeadingZerosImEEmT_NS_12ZeroBehaviorE(i64 noundef %Val, i32 noundef %ZB) #0 comdat {
entry:
  %Val.addr = alloca i64, align 8
  %ZB.addr = alloca i32, align 4
  store i64 %Val, ptr %Val.addr, align 8
  store i32 %ZB, ptr %ZB.addr, align 4
  %0 = load i64, ptr %Val.addr, align 8
  %1 = load i32, ptr %ZB.addr, align 4
  %call = call noundef i64 @_ZN4llvh6detail19LeadingZerosCounterImLm8EE5countEmNS_12ZeroBehaviorE(i64 noundef %0, i32 noundef %1)
  ret i64 %call
}

; Function Attrs: mustprogress nounwind uwtable
define linkonce_odr noundef nonnull align 8 dereferenceable(8) ptr @_ZSt3minImERKT_S2_S2_(ptr noundef nonnull align 8 dereferenceable(8) %__a, ptr noundef nonnull align 8 dereferenceable(8) %__b) #0 comdat {
entry:
  %retval = alloca ptr, align 8
  %__a.addr = alloca ptr, align 8
  %__b.addr = alloca ptr, align 8
  store ptr %__a, ptr %__a.addr, align 8
  store ptr %__b, ptr %__b.addr, align 8
  %0 = load ptr, ptr %__b.addr, align 8
  %1 = load i64, ptr %0, align 8
  %2 = load ptr, ptr %__a.addr, align 8
  %3 = load i64, ptr %2, align 8
  %cmp = icmp ult i64 %1, %3
  br i1 %cmp, label %if.then, label %if.end

if.then:                                          ; preds = %entry
  %4 = load ptr, ptr %__b.addr, align 8
  store ptr %4, ptr %retval, align 8
  br label %return

if.end:                                           ; preds = %entry
  %5 = load ptr, ptr %__a.addr, align 8
  store ptr %5, ptr %retval, align 8
  br label %return

return:                                           ; preds = %if.end, %if.then
  %6 = load ptr, ptr %retval, align 8
  ret ptr %6
}

; Function Attrs: mustprogress nounwind uwtable
define linkonce_odr hidden noundef i64 @_ZNKR4llvh8OptionalImE10getValueOrIjEEmOT_(ptr noundef nonnull align 8 dereferenceable(16) %this, ptr noundef nonnull align 4 dereferenceable(4) %value) #0 comdat align 2 {
entry:
  %this.addr = alloca ptr, align 8
  %value.addr = alloca ptr, align 8
  store ptr %this, ptr %this.addr, align 8
  store ptr %value, ptr %value.addr, align 8
  %this1 = load ptr, ptr %this.addr, align 8
  %call = call noundef zeroext i1 @_ZNK4llvh8OptionalImE8hasValueEv(ptr noundef nonnull align 8 dereferenceable(16) %this1)
  br i1 %call, label %cond.true, label %cond.false

cond.true:                                        ; preds = %entry
  %call2 = call noundef nonnull align 8 dereferenceable(8) ptr @_ZNKR4llvh8OptionalImE8getValueEv(ptr noundef nonnull align 8 dereferenceable(16) %this1)
  %0 = load i64, ptr %call2, align 8
  br label %cond.end

cond.false:                                       ; preds = %entry
  %1 = load ptr, ptr %value.addr, align 8
  %2 = load i32, ptr %1, align 4
  %conv = zext i32 %2 to i64
  br label %cond.end

cond.end:                                         ; preds = %cond.false, %cond.true
  %cond = phi i64 [ %0, %cond.true ], [ %conv, %cond.false ]
  ret i64 %cond
}

; Function Attrs: mustprogress nounwind uwtable
define hidden void @_ZN4llvh9write_hexERNS_11raw_ostreamEmNS_13HexPrintStyleENS_8OptionalImEE(ptr noundef nonnull align 8 dereferenceable(36) %S, i64 noundef %N, i32 noundef %Style, i64 %Width.coerce0, i8 %Width.coerce1) #0 {
entry:
  %Width = alloca %"class.llvh::Optional", align 8
  %S.addr = alloca ptr, align 8
  %N.addr = alloca i64, align 8
  %Style.addr = alloca i32, align 4
  %kMaxWidth = alloca i64, align 8
  %W = alloca i64, align 8
  %ref.tmp = alloca i64, align 8
  %ref.tmp1 = alloca i32, align 4
  %Nibbles = alloca i32, align 4
  %Prefix = alloca i8, align 1
  %Upper = alloca i8, align 1
  %PrefixChars = alloca i32, align 4
  %NumChars = alloca i32, align 4
  %ref.tmp10 = alloca i32, align 4
  %ref.tmp12 = alloca i32, align 4
  %ref.tmp13 = alloca i32, align 4
  %NumberBuffer = alloca [128 x i8], align 16
  %EndPtr = alloca ptr, align 8
  %CurPtr = alloca ptr, align 8
  %x = alloca i8, align 1
  %0 = getelementptr inbounds { i64, i8 }, ptr %Width, i32 0, i32 0
  store i64 %Width.coerce0, ptr %0, align 8
  %1 = getelementptr inbounds { i64, i8 }, ptr %Width, i32 0, i32 1
  store i8 %Width.coerce1, ptr %1, align 8
  store ptr %S, ptr %S.addr, align 8
  store i64 %N, ptr %N.addr, align 8
  store i32 %Style, ptr %Style.addr, align 4
  store i64 128, ptr %kMaxWidth, align 8
  store i32 0, ptr %ref.tmp1, align 4
  %call = call noundef i64 @_ZNKR4llvh8OptionalImE10getValueOrIjEEmOT_(ptr noundef nonnull align 8 dereferenceable(16) %Width, ptr noundef nonnull align 4 dereferenceable(4) %ref.tmp1)
  store i64 %call, ptr %ref.tmp, align 8
  %call2 = call noundef nonnull align 8 dereferenceable(8) ptr @_ZSt3minImERKT_S2_S2_(ptr noundef nonnull align 8 dereferenceable(8) %kMaxWidth, ptr noundef nonnull align 8 dereferenceable(8) %ref.tmp)
  %2 = load i64, ptr %call2, align 8
  store i64 %2, ptr %W, align 8
  %3 = load i64, ptr %N.addr, align 8
  %call3 = call noundef i64 @_ZN4llvh17countLeadingZerosImEEmT_NS_12ZeroBehaviorE(i64 noundef %3, i32 noundef 2)
  %sub = sub i64 64, %call3
  %add = add i64 %sub, 3
  %div = udiv i64 %add, 4
  %conv = trunc i64 %div to i32
  store i32 %conv, ptr %Nibbles, align 4
  %4 = load i32, ptr %Style.addr, align 4
  %cmp = icmp eq i32 %4, 3
  br i1 %cmp, label %lor.end, label %lor.rhs

lor.rhs:                                          ; preds = %entry
  %5 = load i32, ptr %Style.addr, align 4
  %cmp4 = icmp eq i32 %5, 2
  br label %lor.end

lor.end:                                          ; preds = %lor.rhs, %entry
  %6 = phi i1 [ true, %entry ], [ %cmp4, %lor.rhs ]
  %frombool = zext i1 %6 to i8
  store i8 %frombool, ptr %Prefix, align 1
  %7 = load i32, ptr %Style.addr, align 4
  %cmp5 = icmp eq i32 %7, 0
  br i1 %cmp5, label %lor.end8, label %lor.rhs6

lor.rhs6:                                         ; preds = %lor.end
  %8 = load i32, ptr %Style.addr, align 4
  %cmp7 = icmp eq i32 %8, 2
  br label %lor.end8

lor.end8:                                         ; preds = %lor.rhs6, %lor.end
  %9 = phi i1 [ true, %lor.end ], [ %cmp7, %lor.rhs6 ]
  %frombool9 = zext i1 %9 to i8
  store i8 %frombool9, ptr %Upper, align 1
  %10 = load i8, ptr %Prefix, align 1
  %tobool = trunc i8 %10 to i1
  %cond = select i1 %tobool, i32 2, i32 0
  store i32 %cond, ptr %PrefixChars, align 4
  %11 = load i64, ptr %W, align 8
  %conv11 = trunc i64 %11 to i32
  store i32 %conv11, ptr %ref.tmp10, align 4
  store i32 1, ptr %ref.tmp13, align 4
  %call14 = call noundef nonnull align 4 dereferenceable(4) ptr @_ZSt3maxIjERKT_S2_S2_(ptr noundef nonnull align 4 dereferenceable(4) %ref.tmp13, ptr noundef nonnull align 4 dereferenceable(4) %Nibbles)
  %12 = load i32, ptr %call14, align 4
  %13 = load i32, ptr %PrefixChars, align 4
  %add15 = add i32 %12, %13
  store i32 %add15, ptr %ref.tmp12, align 4
  %call16 = call noundef nonnull align 4 dereferenceable(4) ptr @_ZSt3maxIjERKT_S2_S2_(ptr noundef nonnull align 4 dereferenceable(4) %ref.tmp10, ptr noundef nonnull align 4 dereferenceable(4) %ref.tmp12)
  %14 = load i32, ptr %call16, align 4
  store i32 %14, ptr %NumChars, align 4
  %arraydecay = getelementptr inbounds [128 x i8], ptr %NumberBuffer, i64 0, i64 0
  %call17 = call noundef i64 @_ZN4llvh14array_lengthofIcLm128EEEmRAT0__T_(ptr noundef nonnull align 1 dereferenceable(128) %NumberBuffer)
  call void @llvm.memset.p0.i64(ptr align 16 %arraydecay, i8 48, i64 %call17, i1 false)
  %15 = load i8, ptr %Prefix, align 1
  %tobool18 = trunc i8 %15 to i1
  br i1 %tobool18, label %if.then, label %if.end

if.then:                                          ; preds = %lor.end8
  %arrayidx = getelementptr inbounds [128 x i8], ptr %NumberBuffer, i64 0, i64 1
  store i8 120, ptr %arrayidx, align 1
  br label %if.end

if.end:                                           ; preds = %if.then, %lor.end8
  %arraydecay19 = getelementptr inbounds [128 x i8], ptr %NumberBuffer, i64 0, i64 0
  %16 = load i32, ptr %NumChars, align 4
  %idx.ext = zext i32 %16 to i64
  %add.ptr = getelementptr inbounds i8, ptr %arraydecay19, i64 %idx.ext
  store ptr %add.ptr, ptr %EndPtr, align 8
  %17 = load ptr, ptr %EndPtr, align 8
  store ptr %17, ptr %CurPtr, align 8
  br label %while.cond

while.cond:                                       ; preds = %while.body, %if.end
  %18 = load i64, ptr %N.addr, align 8
  %tobool20 = icmp ne i64 %18, 0
  br i1 %tobool20, label %while.body, label %while.end

while.body:                                       ; preds = %while.cond
  %19 = load i64, ptr %N.addr, align 8
  %conv21 = trunc i64 %19 to i8
  %conv22 = zext i8 %conv21 to i32
  %rem = srem i32 %conv22, 16
  %conv23 = trunc i32 %rem to i8
  store i8 %conv23, ptr %x, align 1
  %20 = load i8, ptr %x, align 1
  %conv24 = zext i8 %20 to i32
  %21 = load i8, ptr %Upper, align 1
  %tobool25 = trunc i8 %21 to i1
  %lnot = xor i1 %tobool25, true
  %call26 = call noundef signext i8 @_ZN4llvh8hexdigitEjb(i32 noundef %conv24, i1 noundef zeroext %lnot)
  %22 = load ptr, ptr %CurPtr, align 8
  %incdec.ptr = getelementptr inbounds i8, ptr %22, i32 -1
  store ptr %incdec.ptr, ptr %CurPtr, align 8
  store i8 %call26, ptr %incdec.ptr, align 1
  %23 = load i64, ptr %N.addr, align 8
  %div27 = udiv i64 %23, 16
  store i64 %div27, ptr %N.addr, align 8
  br label %while.cond, !llvm.loop !4

while.end:                                        ; preds = %while.cond
  %24 = load ptr, ptr %S.addr, align 8
  %arraydecay28 = getelementptr inbounds [128 x i8], ptr %NumberBuffer, i64 0, i64 0
  %25 = load i32, ptr %NumChars, align 4
  %conv29 = zext i32 %25 to i64
  %call30 = call noundef nonnull align 8 dereferenceable(36) ptr @_ZN4llvh11raw_ostream5writeEPKcm(ptr noundef nonnull align 8 dereferenceable(36) %24, ptr noundef %arraydecay28, i64 noundef %conv29)
  ret void
}