; Function Attrs: mustprogress nounwind uwtable
define hidden void @_ZN4llvh9write_hexERNS_11raw_ostreamEmNS_13HexPrintStyleENS_8OptionalImEE(ptr noundef nonnull align 8 dereferenceable(36) %S, i64 noundef %N, i32 noundef %Style, i64 %Width.coerce0, i8 %Width.coerce1) local_unnamed_addr #0 {
entry:
  %NumberBuffer = alloca [128 x i8], align 16
  %0 = and i8 %Width.coerce1, 1
  %tobool.i.not.i = icmp eq i8 %0, 0
  %1 = tail call i64 @llvm.umin.i64(i64 %Width.coerce0, i64 128)
  %2 = trunc i64 %1 to i32
  %3 = tail call i64 @llvm.ctlz.i64(i64 %N, i1 false), !range !10
  %add = sub nuw nsw i64 67, %3
  %div9 = lshr i64 %add, 2
  %conv = trunc i64 %div9 to i32
  %4 = and i32 %Style, -2
  %5 = icmp eq i32 %4, 2
  %6 = and i32 %Style, -3
  %.not = icmp eq i32 %6, 0
  %cond = select i1 %5, i32 2, i32 0
  %conv11 = select i1 %tobool.i.not.i, i32 0, i32 %2
  %.sroa.speculated = tail call i32 @llvm.umax.i32(i32 %conv, i32 1)
  %add15 = add nuw nsw i32 %.sroa.speculated, %cond
  %.sroa.speculated19 = tail call i32 @llvm.umax.i32(i32 %conv11, i32 %add15)
  call void @llvm.memset.p0.i64(ptr noundef nonnull align 16 dereferenceable(128) %NumberBuffer, i8 48, i64 128, i1 false)
  br i1 %5, label %if.then, label %if.end

if.then:                                          ; preds = %entry
  %arrayidx = getelementptr inbounds i8, ptr %NumberBuffer, i64 1
  store i8 120, ptr %arrayidx, align 1
  br label %if.end

if.end:                                           ; preds = %if.then, %entry
  %idx.ext = zext nneg i32 %.sroa.speculated19 to i64
  %tobool20.not26 = icmp eq i64 %N, 0
  br i1 %tobool20.not26, label %while.end, label %while.body.lr.ph

while.body.lr.ph:                                 ; preds = %if.end
  %add.ptr = getelementptr inbounds i8, ptr %NumberBuffer, i64 %idx.ext
  %add1.i = select i1 %.not, i32 55, i32 87
  br label %while.body

while.body:                                       ; preds = %while.body.lr.ph, %while.body
  %N.addr.028 = phi i64 [ %N, %while.body.lr.ph ], [ %div2710, %while.body ]
  %CurPtr.027 = phi ptr [ %add.ptr, %while.body.lr.ph ], [ %incdec.ptr, %while.body ]
  %conv21 = trunc i64 %N.addr.028 to i32
  %rem = and i32 %conv21, 15
  %cmp.i15 = icmp ult i32 %rem, 10
  %add.i = or disjoint i32 %rem, 48
  %sub.i = add nuw nsw i32 %add1.i, %rem
  %cond2.i = select i1 %cmp.i15, i32 %add.i, i32 %sub.i
  %conv3.i = trunc i32 %cond2.i to i8
  %incdec.ptr = getelementptr inbounds i8, ptr %CurPtr.027, i64 -1
  store i8 %conv3.i, ptr %incdec.ptr, align 1
  %div2710 = lshr i64 %N.addr.028, 4
  %tobool20.not = icmp ult i64 %N.addr.028, 16
  br i1 %tobool20.not, label %while.end, label %while.body, !llvm.loop !11

while.end:                                        ; preds = %while.body, %if.end
  %call30 = call noundef nonnull align 8 dereferenceable(36) ptr @_ZN4llvh11raw_ostream5writeEPKcm(ptr noundef nonnull align 8 dereferenceable(36) %S, ptr noundef nonnull %NumberBuffer, i64 noundef %idx.ext) #12
  ret void
}